target datalayout = "e-m:e-p270:32:32-p271:32:32-p272:64:64-i64:64-i128:128-f80:128-n8:16:32:64-S128"
target triple = "x86_64-pc-linux-gnu"

%struct.Match_t = type { %struct.Group_t, %struct.Group_t, ptr, ptr }
%struct.Group_t = type { [10 x ptr], [10 x ptr], ptr, i32 }

; Function Attrs: nounwind uwtable
define i32 @strgrpmatch(ptr noundef %0, ptr noundef %1, ptr noundef %2, i32 noundef %3, i32 noundef %4) #0 {
  %6 = alloca i32, align 4
  %7 = alloca ptr, align 8
  %8 = alloca ptr, align 8
  %9 = alloca ptr, align 8
  %10 = alloca i32, align 4
  %11 = alloca i32, align 4
  %12 = alloca i32, align 4
  %13 = alloca ptr, align 8
  %14 = alloca ptr, align 8
  %15 = alloca %struct.Match_t, align 8
  store ptr %0, ptr %7, align 8
  store ptr %1, ptr %8, align 8
  store ptr %2, ptr %9, align 8
  store i32 %3, ptr %10, align 4
  store i32 %4, ptr %11, align 4
  %16 = load ptr, ptr %7, align 8
  store ptr %16, ptr %13, align 8
  %17 = load ptr, ptr %13, align 8
  %18 = load ptr, ptr %13, align 8
  %19 = call i64 @strlen(ptr noundef %18) #3
  %20 = getelementptr inbounds i8, ptr %17, i64 %19
  store ptr %20, ptr %14, align 8
  %21 = getelementptr inbounds %struct.Match_t, ptr %15, i32 0, i32 2
  store ptr %20, ptr %21, align 8
  br label %22

22:                                               ; preds = %78, %5
  %23 = getelementptr inbounds %struct.Match_t, ptr %15, i32 0, i32 1
  %24 = getelementptr inbounds %struct.Group_t, ptr %23, i32 0, i32 2
  store ptr null, ptr %24, align 8
  %25 = getelementptr inbounds %struct.Match_t, ptr %15, i32 0, i32 0
  %26 = getelementptr inbounds %struct.Group_t, ptr %25, i32 0, i32 3
  store i32 0, ptr %26, align 8
  %27 = getelementptr inbounds %struct.Match_t, ptr %15, i32 0, i32 0
  %28 = getelementptr inbounds %struct.Group_t, ptr %27, i32 0, i32 0
  %29 = getelementptr inbounds [10 x ptr], ptr %28, i64 0, i64 0
  store ptr null, ptr %29, align 8
  %30 = load ptr, ptr %13, align 8
  %31 = load ptr, ptr %8, align 8
  %32 = load ptr, ptr %14, align 8
  %33 = load i32, ptr %11, align 4
  %34 = call i32 @grpmatch(ptr noundef %15, i32 noundef 0, ptr noundef %30, ptr noundef %31, ptr noundef %32, i32 noundef %33)
  store i32 %34, ptr %12, align 4
  %35 = icmp ne i32 %34, 0
  br i1 %35, label %41, label %36

36:                                               ; preds = %22
  %37 = getelementptr inbounds %struct.Match_t, ptr %15, i32 0, i32 1
  %38 = getelementptr inbounds %struct.Group_t, ptr %37, i32 0, i32 2
  %39 = load ptr, ptr %38, align 8
  %40 = icmp ne ptr %39, null
  br i1 %40, label %41, label %69

41:                                               ; preds = %36, %22
  %42 = load i32, ptr %11, align 4
  %43 = and i32 %42, 4
  %44 = icmp ne i32 %43, 0
  br i1 %44, label %45, label %51

45:                                               ; preds = %41
  %46 = getelementptr inbounds %struct.Match_t, ptr %15, i32 0, i32 0
  %47 = getelementptr inbounds %struct.Group_t, ptr %46, i32 0, i32 2
  %48 = load ptr, ptr %47, align 8
  %49 = load ptr, ptr %14, align 8
  %50 = icmp eq ptr %48, %49
  br i1 %50, label %51, label %68

51:                                               ; preds = %45, %41
  %52 = load i32, ptr %12, align 4
  %53 = icmp ne i32 %52, 0
  br i1 %53, label %57, label %54

54:                                               ; preds = %51
  %55 = getelementptr inbounds %struct.Match_t, ptr %15, i32 0, i32 0
  %56 = getelementptr inbounds %struct.Match_t, ptr %15, i32 0, i32 1
  call void @llvm.memcpy.p0.p0.i64(ptr align 8 %55, ptr align 8 %56, i64 176, i1 false)
  br label %57

57:                                               ; preds = %54, %51
  %58 = getelementptr inbounds %struct.Match_t, ptr %15, i32 0, i32 0
  %59 = getelementptr inbounds %struct.Group_t, ptr %58, i32 0, i32 3
  %60 = load i32, ptr %59, align 8
  %61 = add nsw i32 %60, 1
  store i32 %61, ptr %59, align 8
  %62 = getelementptr inbounds %struct.Match_t, ptr %15, i32 0, i32 0
  %63 = getelementptr inbounds %struct.Group_t, ptr %62, i32 0, i32 2
  %64 = load ptr, ptr %63, align 8
  %65 = getelementptr inbounds %struct.Match_t, ptr %15, i32 0, i32 0
  %66 = getelementptr inbounds %struct.Group_t, ptr %65, i32 0, i32 1
  %67 = getelementptr inbounds [10 x ptr], ptr %66, i64 0, i64 0
  store ptr %64, ptr %67, align 8
  br label %81

68:                                               ; preds = %45
  br label %69

69:                                               ; preds = %68, %36
  %70 = load i32, ptr %11, align 4
  %71 = and i32 %70, 2
  %72 = icmp ne i32 %71, 0
  br i1 %72, label %77, label %73

73:                                               ; preds = %69
  %74 = load ptr, ptr %13, align 8
  %75 = load ptr, ptr %14, align 8
  %76 = icmp uge ptr %74, %75
  br i1 %76, label %77, label %78

77:                                               ; preds = %73, %69
  store i32 0, ptr %6, align 4
  br label %177

78:                                               ; preds = %73
  %79 = load ptr, ptr %13, align 8
  %80 = getelementptr inbounds i8, ptr %79, i32 1
  store ptr %80, ptr %13, align 8
  br label %22

81:                                               ; preds = %57
  %82 = load i32, ptr %11, align 4
  %83 = and i32 %82, 4
  %84 = icmp ne i32 %83, 0
  br i1 %84, label %85, label %92

85:                                               ; preds = %81
  %86 = getelementptr inbounds %struct.Match_t, ptr %15, i32 0, i32 0
  %87 = getelementptr inbounds %struct.Group_t, ptr %86, i32 0, i32 2
  %88 = load ptr, ptr %87, align 8
  %89 = load ptr, ptr %14, align 8
  %90 = icmp ne ptr %88, %89
  br i1 %90, label %91, label %92

91:                                               ; preds = %85
  store i32 0, ptr %6, align 4
  br label %177

92:                                               ; preds = %85, %81
  %93 = load ptr, ptr %9, align 8
  %94 = icmp ne ptr %93, null
  br i1 %94, label %96, label %95

95:                                               ; preds = %92
  store i32 1, ptr %6, align 4
  br label %177

96:                                               ; preds = %92
  %97 = load ptr, ptr %13, align 8
  %98 = getelementptr inbounds %struct.Match_t, ptr %15, i32 0, i32 0
  %99 = getelementptr inbounds %struct.Group_t, ptr %98, i32 0, i32 0
  %100 = getelementptr inbounds [10 x ptr], ptr %99, i64 0, i64 0
  store ptr %97, ptr %100, align 8
  %101 = load ptr, ptr %7, align 8
  store ptr %101, ptr %13, align 8
  %102 = load i32, ptr %10, align 4
  %103 = getelementptr inbounds %struct.Match_t, ptr %15, i32 0, i32 0
  %104 = getelementptr inbounds %struct.Group_t, ptr %103, i32 0, i32 3
  %105 = load i32, ptr %104, align 8
  %106 = icmp sgt i32 %102, %105
  br i1 %106, label %107, label %111

107:                                              ; preds = %96
  %108 = getelementptr inbounds %struct.Match_t, ptr %15, i32 0, i32 0
  %109 = getelementptr inbounds %struct.Group_t, ptr %108, i32 0, i32 3
  %110 = load i32, ptr %109, align 8
  store i32 %110, ptr %10, align 4
  br label %111

111:                                              ; preds = %107, %96
  store i32 0, ptr %12, align 4
  br label %112

112:                                              ; preds = %172, %111
  %113 = load i32, ptr %12, align 4
  %114 = load i32, ptr %10, align 4
  %115 = icmp slt i32 %113, %114
  br i1 %115, label %116, label %175

116:                                              ; preds = %112
  %117 = getelementptr inbounds %struct.Match_t, ptr %15, i32 0, i32 0
  %118 = getelementptr inbounds %struct.Group_t, ptr %117, i32 0, i32 1
  %119 = load i32, ptr %12, align 4
  %120 = sext i32 %119 to i64
  %121 = getelementptr inbounds [10 x ptr], ptr %118, i64 0, i64 %120
  %122 = load ptr, ptr %121, align 8
  %123 = icmp ne ptr %122, null
  br i1 %123, label %124, label %135

124:                                              ; preds = %116
  %125 = getelementptr inbounds %struct.Match_t, ptr %15, i32 0, i32 0
  %126 = getelementptr inbounds %struct.Group_t, ptr %125, i32 0, i32 0
  %127 = load i32, ptr %12, align 4
  %128 = sext i32 %127 to i64
  %129 = getelementptr inbounds [10 x ptr], ptr %126, i64 0, i64 %128
  %130 = load ptr, ptr %129, align 8
  %131 = load ptr, ptr %13, align 8
  %132 = ptrtoint ptr %130 to i64
  %133 = ptrtoint ptr %131 to i64
  %134 = sub i64 %132, %133
  br label %136

135:                                              ; preds = %116
  br label %136

136:                                              ; preds = %135, %124
  %137 = phi i64 [ %134, %124 ], [ 0, %135 ]
  %138 = trunc i64 %137 to i32
  %139 = load ptr, ptr %9, align 8
  %140 = load i32, ptr %12, align 4
  %141 = mul nsw i32 %140, 2
  %142 = sext i32 %141 to i64
  %143 = getelementptr inbounds i32, ptr %139, i64 %142
  store i32 %138, ptr %143, align 4
  %144 = getelementptr inbounds %struct.Match_t, ptr %15, i32 0, i32 0
  %145 = getelementptr inbounds %struct.Group_t, ptr %144, i32 0, i32 1
  %146 = load i32, ptr %12, align 4
  %147 = sext i32 %146 to i64
  %148 = getelementptr inbounds [10 x ptr], ptr %145, i64 0, i64 %147
  %149 = load ptr, ptr %148, align 8
  %150 = icmp ne ptr %149, null
  br i1 %150, label %151, label %162

151:                                              ; preds = %136
  %152 = getelementptr inbounds %struct.Match_t, ptr %15, i32 0, i32 0
  %153 = getelementptr inbounds %struct.Group_t, ptr %152, i32 0, i32 1
  %154 = load i32, ptr %12, align 4
  %155 = sext i32 %154 to i64
  %156 = getelementptr inbounds [10 x ptr], ptr %153, i64 0, i64 %155
  %157 = load ptr, ptr %156, align 8
  %158 = load ptr, ptr %13, align 8
  %159 = ptrtoint ptr %157 to i64
  %160 = ptrtoint ptr %158 to i64
  %161 = sub i64 %159, %160
  br label %163

162:                                              ; preds = %136
  br label %163

163:                                              ; preds = %162, %151
  %164 = phi i64 [ %161, %151 ], [ 0, %162 ]
  %165 = trunc i64 %164 to i32
  %166 = load ptr, ptr %9, align 8
  %167 = load i32, ptr %12, align 4
  %168 = mul nsw i32 %167, 2
  %169 = add nsw i32 %168, 1
  %170 = sext i32 %169 to i64
  %171 = getelementptr inbounds i32, ptr %166, i64 %170
  store i32 %165, ptr %171, align 4
  br label %172

172:                                              ; preds = %163
  %173 = load i32, ptr %12, align 4
  %174 = add nsw i32 %173, 1
  store i32 %174, ptr %12, align 4
  br label %112

175:                                              ; preds = %112
  %176 = load i32, ptr %10, align 4
  store i32 %176, ptr %6, align 4
  br label %177

177:                                              ; preds = %175, %95, %91, %77
  %178 = load i32, ptr %6, align 4
  ret i32 %178
}