; Function Attrs: nofree nounwind memory(readwrite, inaccessiblemem: read) uwtable
define i32 @strgrpmatch(ptr noundef %0, ptr noundef %1, ptr noundef writeonly %2, i32 noundef %3, i32 noundef %4) local_unnamed_addr #0 {
  %6 = alloca %struct.Match_t, align 8
  %7 = tail call i64 @strlen(ptr noundef nonnull dereferenceable(1) %0) #7
  %8 = getelementptr inbounds i8, ptr %0, i64 %7
  %9 = getelementptr inbounds nuw i8, ptr %6, i64 352
  store ptr %8, ptr %9, align 8
  %10 = getelementptr inbounds nuw i8, ptr %6, i64 336
  %11 = getelementptr inbounds nuw i8, ptr %6, i64 168
  %12 = and i32 %4, 4
  %.not = icmp eq i32 %12, 0
  %13 = getelementptr inbounds nuw i8, ptr %6, i64 160
  %14 = and i32 %4, 2
  %.not44 = icmp eq i32 %14, 0
  br i1 %.not44, label %.split, label %.split.us

.split.us:                                        ; preds = %5
  store ptr null, ptr %10, align 8
  store i32 0, ptr %11, align 8
  store ptr null, ptr %6, align 8
  %15 = call fastcc i32 @grpmatch(ptr noundef %6, i32 noundef 0, ptr noundef nonnull %0, ptr noundef %1, ptr noundef nonnull %8)
  %16 = icmp ne i32 %15, 0
  %17 = load ptr, ptr %10, align 8
  %18 = icmp ne ptr %17, null
  %or.cond.us = select i1 %16, i1 true, i1 %18
  br i1 %or.cond.us, label %19, label %.loopexit

19:                                               ; preds = %.split.us
  %20 = load ptr, ptr %13, align 8
  %21 = icmp eq ptr %20, %8
  %or.cond52.us = select i1 %.not, i1 true, i1 %21
  br i1 %or.cond52.us, label %.split64.us, label %.loopexit

.split:                                           ; preds = %5
  br i1 %.not, label %.split.split.us, label %.split.split

.split.split.us:                                  ; preds = %.split
  store ptr null, ptr %10, align 8
  store i32 0, ptr %11, align 8
  store ptr null, ptr %6, align 8
  %22 = call fastcc i32 @grpmatch(ptr noundef %6, i32 noundef 0, ptr noundef nonnull %0, ptr noundef %1, ptr noundef nonnull %8)
  %23 = icmp ne i32 %22, 0
  %24 = load ptr, ptr %10, align 8
  %25 = icmp ne ptr %24, null
  %or.cond.us6878 = select i1 %23, i1 true, i1 %25
  br i1 %or.cond.us6878, label %.split64.us, label %.lr.ph

.lr.ph:                                           ; preds = %.split.split.us, %26
  %.037.us6779 = phi ptr [ %27, %26 ], [ %0, %.split.split.us ]
  %.not45.us = icmp ult ptr %.037.us6779, %8
  br i1 %.not45.us, label %26, label %.loopexit

26:                                               ; preds = %.lr.ph
  %27 = getelementptr inbounds nuw i8, ptr %.037.us6779, i64 1
  store ptr null, ptr %10, align 8
  store i32 0, ptr %11, align 8
  store ptr null, ptr %6, align 8
  %28 = call fastcc i32 @grpmatch(ptr noundef %6, i32 noundef 0, ptr noundef nonnull %27, ptr noundef %1, ptr noundef nonnull %8)
  %29 = icmp ne i32 %28, 0
  %30 = load ptr, ptr %10, align 8
  %31 = icmp ne ptr %30, null
  %or.cond.us68 = select i1 %29, i1 true, i1 %31
  br i1 %or.cond.us68, label %.split64.us, label %.lr.ph

.split.split:                                     ; preds = %.split, %46
  %.037 = phi ptr [ %47, %46 ], [ %0, %.split ]
  store ptr null, ptr %10, align 8
  store i32 0, ptr %11, align 8
  store ptr null, ptr %6, align 8
  %32 = call fastcc i32 @grpmatch(ptr noundef %6, i32 noundef 0, ptr noundef nonnull %.037, ptr noundef %1, ptr noundef nonnull %8)
  %33 = icmp ne i32 %32, 0
  %34 = load ptr, ptr %10, align 8
  %35 = icmp ne ptr %34, null
  %or.cond = select i1 %33, i1 true, i1 %35
  %36 = load ptr, ptr %13, align 8
  %37 = icmp eq ptr %36, %8
  %or.cond85 = select i1 %or.cond, i1 %37, i1 false
  br i1 %or.cond85, label %.split64.us, label %45

.split64.us:                                      ; preds = %.split.split, %26, %.split.split.us, %19
  %.us-phi = phi ptr [ %0, %19 ], [ %0, %.split.split.us ], [ %27, %26 ], [ %.037, %.split.split ]
  %.us-phi65 = phi i1 [ %16, %19 ], [ %23, %.split.split.us ], [ %29, %26 ], [ %33, %.split.split ]
  %.us-phi66 = phi i1 [ %.not, %19 ], [ true, %.split.split.us ], [ true, %26 ], [ false, %.split.split ]
  br i1 %.us-phi65, label %40, label %38

38:                                               ; preds = %.split64.us
  %39 = getelementptr inbounds nuw i8, ptr %6, i64 176
  call void @llvm.memcpy.p0.p0.i64(ptr noundef nonnull align 8 dereferenceable(176) %6, ptr noundef nonnull align 8 dereferenceable(176) %39, i64 176, i1 false)
  br label %40

40:                                               ; preds = %38, %.split64.us
  %41 = load i32, ptr %11, align 8
  %42 = add nsw i32 %41, 1
  store i32 %42, ptr %11, align 8
  %43 = load ptr, ptr %13, align 8
  %44 = getelementptr inbounds nuw i8, ptr %6, i64 80
  store ptr %43, ptr %44, align 8
  %.not46 = icmp eq ptr %43, %8
  %or.cond54 = select i1 %.us-phi66, i1 true, i1 %.not46
  br i1 %or.cond54, label %48, label %.loopexit

45:                                               ; preds = %.split.split
  %.not45 = icmp ult ptr %.037, %8
  br i1 %.not45, label %46, label %.loopexit

46:                                               ; preds = %45
  %47 = getelementptr inbounds nuw i8, ptr %.037, i64 1
  br label %.split.split

48:                                               ; preds = %40
  %.not47 = icmp eq ptr %2, null
  br i1 %.not47, label %.loopexit, label %49

49:                                               ; preds = %48
  store ptr %.us-phi, ptr %6, align 8
  %spec.select = tail call i32 @llvm.smin.i32(i32 %3, i32 %42)
  %50 = icmp sgt i32 %spec.select, 0
  br i1 %50, label %.lr.ph83, label %.loopexit

.lr.ph83:                                         ; preds = %49
  %51 = ptrtoint ptr %0 to i64
  %wide.trip.count = zext nneg i32 %spec.select to i64
  br label %52

52:                                               ; preds = %.lr.ph83, %61
  %indvars.iv = phi i64 [ 0, %.lr.ph83 ], [ %indvars.iv.next, %61 ]
  %53 = getelementptr inbounds nuw [10 x ptr], ptr %44, i64 0, i64 %indvars.iv
  %54 = load ptr, ptr %53, align 8
  %.not48 = icmp eq ptr %54, null
  br i1 %.not48, label %61, label %55

55:                                               ; preds = %52
  %56 = getelementptr inbounds nuw [10 x ptr], ptr %6, i64 0, i64 %indvars.iv
  %57 = load ptr, ptr %56, align 8
  %58 = ptrtoint ptr %57 to i64
  %59 = sub i64 %58, %51
  %60 = trunc i64 %59 to i32
  br label %61

61:                                               ; preds = %52, %55
  %62 = phi i32 [ %60, %55 ], [ 0, %52 ]
  %63 = shl nuw nsw i64 %indvars.iv, 1
  %64 = getelementptr inbounds nuw i32, ptr %2, i64 %63
  store i32 %62, ptr %64, align 4
  %65 = ptrtoint ptr %54 to i64
  %66 = sub i64 %65, %51
  %67 = trunc i64 %66 to i32
  %68 = select i1 %.not48, i32 0, i32 %67
  %69 = or disjoint i64 %63, 1
  %70 = getelementptr inbounds nuw i32, ptr %2, i64 %69
  store i32 %68, ptr %70, align 4
  %indvars.iv.next = add nuw nsw i64 %indvars.iv, 1
  %exitcond.not = icmp eq i64 %indvars.iv.next, %wide.trip.count
  br i1 %exitcond.not, label %.loopexit, label %52

.loopexit:                                        ; preds = %45, %.lr.ph, %61, %.split.us, %19, %49, %48, %40
  %.0 = phi i32 [ 0, %40 ], [ 1, %48 ], [ %spec.select, %49 ], [ 0, %19 ], [ 0, %.split.us ], [ %spec.select, %61 ], [ 0, %.lr.ph ], [ 0, %45 ]
  ret i32 %.0
}